target datalayout = "e-m:e-p270:32:32-p271:32:32-p272:64:64-i64:64-i128:128-f80:128-n8:16:32:64-S128"
target triple = "x86_64-pc-linux-gnu"

%class.btVector3 = type { [4 x float] }
%class.btDeformableNodeAnchorConstraint = type { %class.btDeformableContactConstraint, ptr }
%class.btDeformableContactConstraint = type { ptr, i8, ptr, %class.btVector3 }

; Function Attrs: mustprogress nounwind uwtable
define linkonce_odr dso_local void @_ZN29btDeformableContactConstraintC2ERKS_(ptr noundef nonnull align 8 dereferenceable(40) %0, ptr noundef nonnull align 8 dereferenceable(40) %1) unnamed_addr #1 comdat align 2 {
  %3 = alloca ptr, align 8
  %4 = alloca ptr, align 8
  store ptr %0, ptr %3, align 8, !tbaa !25
  store ptr %1, ptr %4, align 8, !tbaa !25
  %5 = load ptr, ptr %3, align 8
  store ptr getelementptr inbounds inrange(-16, 64) ({ [10 x ptr] }, ptr @_ZTV29btDeformableContactConstraint, i32 0, i32 0, i32 2), ptr %5, align 8, !tbaa !18
  %6 = getelementptr inbounds nuw %class.btDeformableContactConstraint, ptr %5, i32 0, i32 1
  %7 = load ptr, ptr %4, align 8, !tbaa !25
  %8 = getelementptr inbounds nuw %class.btDeformableContactConstraint, ptr %7, i32 0, i32 1
  %9 = load i8, ptr %8, align 8, !tbaa !29, !range !32, !noundef !33
  %10 = trunc i8 %9 to i1
  %11 = zext i1 %10 to i8
  store i8 %11, ptr %6, align 8, !tbaa !29
  %12 = getelementptr inbounds nuw %class.btDeformableContactConstraint, ptr %5, i32 0, i32 2
  %13 = load ptr, ptr %4, align 8, !tbaa !25
  %14 = getelementptr inbounds nuw %class.btDeformableContactConstraint, ptr %13, i32 0, i32 2
  %15 = load ptr, ptr %14, align 8, !tbaa !30
  store ptr %15, ptr %12, align 8, !tbaa !30
  %16 = getelementptr inbounds nuw %class.btDeformableContactConstraint, ptr %5, i32 0, i32 3
  %17 = load ptr, ptr %4, align 8, !tbaa !25
  %18 = getelementptr inbounds nuw %class.btDeformableContactConstraint, ptr %17, i32 0, i32 3
  call void @llvm.memcpy.p0.p0.i64(ptr align 8 %16, ptr align 8 %18, i64 16, i1 false), !tbaa.struct !31
  ret void
}

; Function Attrs: mustprogress uwtable
define dso_local void @_ZN32btDeformableNodeAnchorConstraintC2ERKS_(ptr noundef nonnull align 8 dereferenceable(48) %0, ptr noundef nonnull align 8 dereferenceable(48) %1) unnamed_addr #2 align 2 {
  %3 = alloca ptr, align 8
  %4 = alloca ptr, align 8
  store ptr %0, ptr %3, align 8, !tbaa !12
  store ptr %1, ptr %4, align 8, !tbaa !12
  %5 = load ptr, ptr %3, align 8
  %6 = load ptr, ptr %4, align 8, !tbaa !12
  call void @_ZN29btDeformableContactConstraintC2ERKS_(ptr noundef nonnull align 8 dereferenceable(40) %5, ptr noundef nonnull align 8 dereferenceable(40) %6)
  store ptr getelementptr inbounds inrange(-16, 64) ({ [10 x ptr] }, ptr @_ZTV32btDeformableNodeAnchorConstraint, i32 0, i32 0, i32 2), ptr %5, align 8, !tbaa !18
  %7 = getelementptr inbounds nuw %class.btDeformableNodeAnchorConstraint, ptr %5, i32 0, i32 1
  %8 = load ptr, ptr %4, align 8, !tbaa !12
  %9 = getelementptr inbounds nuw %class.btDeformableNodeAnchorConstraint, ptr %8, i32 0, i32 1
  %10 = load ptr, ptr %9, align 8, !tbaa !20
  store ptr %10, ptr %7, align 8, !tbaa !20
  ret void
}