; Function Attrs: mustprogress nofree norecurse nosync nounwind willreturn memory(argmem: readwrite) uwtable
define dso_local void @_ZN32btDeformableNodeAnchorConstraintC2ERKS_(ptr noundef nonnull writeonly align 8 captures(none) dereferenceable(48) initializes((0, 9), (16, 48)) %0, ptr noundef nonnull readonly align 8 captures(none) dereferenceable(48) %1) unnamed_addr #0 align 2 {
  store ptr getelementptr inbounds nuw inrange(-16, 64) (i8, ptr @_ZTV29btDeformableContactConstraint, i64 16), ptr %0, align 8, !tbaa !4
  %3 = getelementptr inbounds nuw i8, ptr %0, i64 8
  %4 = getelementptr inbounds nuw i8, ptr %1, i64 8
  %5 = load i8, ptr %4, align 8, !tbaa !7, !range !20, !noundef !21
  store i8 %5, ptr %3, align 8, !tbaa !7
  %6 = getelementptr inbounds nuw i8, ptr %0, i64 16
  %7 = getelementptr inbounds nuw i8, ptr %1, i64 16
  %8 = load ptr, ptr %7, align 8, !tbaa !14
  store ptr %8, ptr %6, align 8, !tbaa !14
  %9 = getelementptr inbounds nuw i8, ptr %0, i64 24
  %10 = getelementptr inbounds nuw i8, ptr %1, i64 24
  tail call void @llvm.memcpy.p0.p0.i64(ptr noundef nonnull align 8 dereferenceable(16) %9, ptr noundef nonnull align 8 dereferenceable(16) %10, i64 16, i1 false), !tbaa.struct !15
  store ptr getelementptr inbounds nuw inrange(-16, 64) (i8, ptr @_ZTV32btDeformableNodeAnchorConstraint, i64 16), ptr %0, align 8, !tbaa !4
  %11 = getelementptr inbounds nuw i8, ptr %0, i64 40
  %12 = getelementptr inbounds nuw i8, ptr %1, i64 40
  %13 = load ptr, ptr %12, align 8, !tbaa !17
  store ptr %13, ptr %11, align 8, !tbaa !17
  ret void
}